(dp0
S'Volt_dc'
p1
(lp2
S'Vdc'
p3
aS'V'
p4
aS'volt_dc.cpp'
p5
aS'SOURCE'
p6
asS'dmux4to16'
p7
(lp8
S'dmux4to16'
p9
aS'Y'
p10
aS'dmux4to16.cpp'
p11
aS'DIGITAL'
p12
asS'comp_1bit'
p13
(lp14
S'comp_1bit'
p15
ag10
aS'comp_1bit.cpp'
p16
ag12
asS'TunnelDiode'
p17
(lp18
S'RTD'
p19
aS'D'
p20
aS'tunneldiode.cpp'
p21
aS'NONLINEAR'
p22
asS'Diac'
p23
(lp24
S'Diac'
p25
ag20
aS'diac.cpp'
p26
ag22
asS'andor4x4'
p27
(lp28
S'andor4x4'
p29
ag10
aS'andor4x4.cpp'
p30
ag12
asS'Coplanar'
p31
(lp32
S'CLIN'
p33
aS'CL'
p34
aS'coplanar.cpp'
p35
aS'TRANS'
p36
asS'DLS_nto1'
p37
(lp38
S'DLS_nto1'
p39
ag10
aS'DLS_nto1.cpp'
p40
ag12
asS'DLS_1ton'
p41
(lp42
S'DLS_1ton'
p43
ag10
aS'DLS_1ton.cpp'
p44
ag12
asS'andor4x2'
p45
(lp46
S'andor4x2'
p47
ag10
aS'andor4x2.cpp'
p48
ag12
asS'andor4x3'
p49
(lp50
S'andor4x3'
p51
ag10
aS'andor4x3.cpp'
p52
ag12
asS'Resistor'
p53
(lp54
S'R'
p55
ag55
aS'resistor.cpp'
p56
aS'LUMPED'
p57
asS'iProbe'
p58
(lp59
S'IProbe'
p60
aS'Pr'
p61
aS'iprobe.cpp'
p62
aS'PROBE'
p63
asS'mux2to1'
p64
(lp65
S'mux2to1'
p66
ag10
aS'mux2to1.cpp'
p67
ag12
asS'Circulator'
p68
(lp69
S'Circulator'
p70
aS'X'
p71
aS'circulator.cpp'
p72
ag57
asS'Noise_vv'
p73
(lp74
S'VVnoise'
p75
aS'SRC'
p76
aS'noise_vv.cpp'
p77
ag6
asS'HB_Sim'
p78
(lp79
S'.HB'
p80
aS'HB'
p81
aS'hb_sim.cpp'
p82
aS'SIMULATION'
p83
asS'dmux2to4'
p84
(lp85
S'dmux2to4'
p86
ag10
aS'dmux2to4.cpp'
p87
ag12
asS'greytobinary4bit'
p88
(lp89
S'greytobinary4bit'
p90
ag10
aS'greytobinary4bit.cpp'
p91
ag12
asS'Mutual2'
p92
(lp93
S'MUT2'
p94
aS'Tr'
p95
aS'mutual2.cpp'
p96
ag57
asS'symTrafo'
p97
(lp98
S'sTr'
p99
aS'Tr'
p100
aS'symtrafo.cpp'
p101
ag57
asS'Digi_Source'
p102
(lp103
S'DigiSource'
p104
aS'S'
p105
aS'digi_source.cpp'
p106
ag12
asS'Substrate'
p107
(lp108
S'SUBST'
p109
aS'Subst'
p110
aS'substrate.cpp'
p111
ag36
asS'TwistedPair'
p112
(lp113
S'TWIST'
p114
aS'Line'
p115
aS'twistedpair.cpp'
p116
ag36
asS'iPulse'
p117
(lp118
S'Ipulse'
p119
aS'I'
p120
aS'ipulse.cpp'
p121
ag6
asS'hic2_full'
p122
(lp123
S'hic2_full'
p124
aS'T'
p125
aS'hic2_full.cpp'
p126
aS'VERILOGA'
p127
asS'CCVS'
p128
(lp129
S'CCVS'
p130
aS'SRC'
p131
aS'ccvs.cpp'
p132
ag6
asS'RFedd'
p133
(lp134
S'RFEDD'
p135
aS'RF'
p136
aS'rfedd.cpp'
p137
ag57
asS'EKV26MOS'
p138
(lp139
S'EKV26MOS'
p140
aS'M'
p141
aS'EKV26MOS.cpp'
p142
ag127
asS'Ampere_noise'
p143
(lp144
S'Inoise'
p145
ag120
aS'ampere_noise.cpp'
p146
ag6
asS'SP_Sim'
p147
(lp148
S'.SP'
p149
aS'SP'
p150
aS'sp_sim.cpp'
p151
ag83
asS'iRect'
p152
(lp153
S'Irect'
p154
ag120
aS'irect.cpp'
p155
ag6
asS'pad2bit'
p156
(lp157
S'pad2bit'
p158
ag10
aS'pad2bit.cpp'
p159
ag12
asS'pad3bit'
p160
(lp161
S'pad3bit'
p162
ag10
aS'pad3bit.cpp'
p163
ag12
asS'hicumL2V2p1'
p164
(lp165
S'hicumL2V2p1'
p166
ag125
aS'hicumL2V2p1.cpp'
p167
ag127
asS'Coupler'
p168
(lp169
S'Coupler'
p170
ag71
aS'coupler.cpp'
p171
ag57
asS'CPWshort'
p172
(lp173
S'CSHORT'
p174
aS'CL'
p175
aS'cpwshort.cpp'
p176
ag36
asS'Inductor'
p177
(lp178
S'L'
p179
ag179
aS'inductor.cpp'
p180
ag57
asS'hpribin4bit'
p181
(lp182
S'hpribin4bit'
p183
ag10
aS'hpribin4bit.cpp'
p184
ag12
asS'Logical_NAND'
p185
(lp186
S'NAND'
p187
ag10
aS'logical_nand.cpp'
p188
ag12
asS'TLine_4Port'
p189
(lp190
S'TLIN4P'
p191
aS'Line'
p192
aS'tline_4port.cpp'
p193
ag36
asS'Gyrator'
p194
(lp195
S'Gyrator'
p196
ag71
aS'gyrator.cpp'
p197
ag57
asS'Logical_Inv'
p198
(lp199
S'Inv'
p200
ag10
aS'logical_inv.cpp'
p201
ag12
asS'dmux3to8'
p202
(lp203
S'dmux3to8'
p204
ag10
aS'dmux3to8.cpp'
p205
ag12
asS'hic0_full'
p206
(lp207
S'hic0_full'
p208
ag125
aS'hic0_full.cpp'
p209
ag127
asS'fa2b'
p210
(lp211
S'fa2b'
p212
ag10
aS'fa2b.cpp'
p213
ag12
asS'hicumL2V2p24'
p214
(lp215
S'hicumL2V2p24'
p216
ag125
aS'hicumL2V2p24.cpp'
p217
ag127
asS'Diode'
p218
(lp219
S'Diode'
p220
ag20
aS'diode.cpp'
p221
ag22
asS'hicumL2V2p23'
p222
(lp223
S'hicumL2V2p23'
p224
ag125
aS'hicumL2V2p23.cpp'
p225
ag127
asS'bsim4v30nMOS'
p226
(lp227
S'bsim4v30nMOS'
p228
aS'BSIM4_'
p229
aS'bsim4v30nMOS.cpp'
p230
ag127
asS'Optimize_Sim'
p231
(lp232
S'.Opt'
p233
aS'Opt'
p234
aS'opt_sim.cpp'
p235
ag83
asS'MSlange'
p236
(lp237
S'MLANGE'
p238
aS'MS'
p239
aS'mslange.cpp'
p240
ag36
asS'comp_4bit'
p241
(lp242
S'comp_4bit'
p243
ag10
aS'comp_4bit.cpp'
p244
ag12
asS'MSrstub'
p245
(lp246
S'MRSTUB'
p247
aS'MS'
p248
aS'msrstub.cpp'
p249
ag36
asS'MSgap'
p250
(lp251
S'MGAP'
p252
aS'MS'
p253
aS'msgap.cpp'
p254
ag36
asS'potentiometer'
p255
(lp256
S'potentiometer'
p257
aS'POT'
p258
aS'potentiometer.cpp'
p259
ag127
asS'CoupledTLine'
p260
(lp261
S'CTLIN'
p262
aS'Line'
p263
aS'ctline.cpp'
p264
ag36
asS'Transformer'
p265
(lp266
S'Tr'
p267
aS'Tr'
p268
aS'transformer.cpp'
p269
ag57
asS'mod_amp'
p270
(lp271
S'mod_amp'
p272
aS'OP'
p273
aS'mod_amp.cpp'
p274
ag127
asS'iExp'
p275
(lp276
S'Iexp'
p277
ag120
aS'iexp.cpp'
p278
ag6
asS'Logical_XNOR'
p279
(lp280
S'XNOR'
p281
ag10
aS'logical_xnor.cpp'
p282
ag12
asS'OpAmp'
p283
(lp284
S'OpAmp'
p285
aS'OP'
p286
aS'opamp.cpp'
p287
ag22
asS'Isolator'
p288
(lp289
S'Isolator'
p290
ag71
aS'isolator.cpp'
p291
ag57
asS'MScoupled'
p292
(lp293
S'MCOUPLED'
p294
aS'MS'
p295
aS'mscoupled.cpp'
p296
ag36
asS'JK_FlipFlop'
p297
(lp298
S'JKFF'
p299
ag10
aS'jk_flipflop.cpp'
p300
ag12
asS'iFile'
p301
(lp302
S'Ifile'
p303
ag120
aS'ifile.cpp'
p304
ag6
asS'CPWstep'
p305
(lp306
S'CSTEP'
p307
aS'CL'
p308
aS'cpwstep.cpp'
p309
ag36
asS'MESFET'
p310
(lp311
S'MESFET'
p312
ag125
aS'MESFET.cpp'
p313
ag127
asS'dcBlock'
p314
(lp315
S'DCBlock'
p316
aS'C'
p317
aS'dcblock.cpp'
p318
ag57
asS'tff_SR'
p319
(lp320
S'tff_SR'
p321
ag10
aS'tff_SR.cpp'
p322
ag12
asS'bsim4v30pMOS'
p323
(lp324
S'bsim4v30pMOS'
p325
aS'BSIM4_'
p326
aS'bsim4v30pMOS.cpp'
p327
ag127
asS'CPWgap'
p328
(lp329
S'CGAP'
p330
aS'CL'
p331
aS'cpwgap.cpp'
p332
ag36
asS'Logical_XOR'
p333
(lp334
S'XOR'
p335
ag10
aS'logical_xor.cpp'
p336
ag12
asS'Logical_NOR'
p337
(lp338
S'NOR'
p339
ag10
aS'logical_nor.cpp'
p340
ag12
asS'Ampere_dc'
p341
(lp342
S'Idc'
p343
ag120
aS'ampere_dc.cpp'
p344
ag6
asS'Phaseshifter'
p345
(lp346
S'PShift'
p347
ag71
aS'phaseshifter.cpp'
p348
ag57
asS'VCVS'
p349
(lp350
S'VCVS'
p351
aS'SRC'
p352
aS'vcvs.cpp'
p353
ag6
asS'Logical_OR'
p354
(lp355
S'OR'
p356
ag10
aS'logical_or.cpp'
p357
ag12
asS'binarytogrey4bit'
p358
(lp359
S'binarytogrey4bit'
p360
ag10
aS'binarytogrey4bit.cpp'
p361
ag12
asS'fa1b'
p362
(lp363
S'fa1b'
p364
ag10
aS'fa1b.cpp'
p365
ag12
asS'CoaxialLine'
p366
(lp367
S'COAX'
p368
aS'Line'
p369
aS'coaxialline.cpp'
p370
ag36
asS'dcFeed'
p371
(lp372
S'DCFeed'
p373
ag179
aS'dcfeed.cpp'
p374
ag57
asS'Mutual'
p375
(lp376
S'MUT'
p377
aS'Tr'
p378
aS'mutual.cpp'
p379
ag57
asS'MSmbend'
p380
(lp381
S'MMBEND'
p382
aS'MS'
p383
aS'msmbend.cpp'
p384
ag36
asS'Relais'
p385
(lp386
S'Relais'
p387
ag105
aS'relais.cpp'
p388
ag57
asS'vPulse'
p389
(lp390
S'Vpulse'
p391
ag4
aS'vpulse.cpp'
p392
ag6
asS'Hybrid'
p393
(lp394
S'Hybrid'
p395
ag71
aS'hybrid.cpp'
p396
ag57
asS'SubCirPort'
p397
(lp398
S'Port'
p399
aS'P'
p400
aS'subcirport.cpp'
p401
ag57
asS'Logical_AND'
p402
(lp403
S'AND'
p404
ag10
aS'logical_and.cpp'
p405
ag12
asS'VCCS'
p406
(lp407
S'VCCS'
p408
aS'SRC'
p409
aS'vccs.cpp'
p410
ag6
asS'vRect'
p411
(lp412
S'Vrect'
p413
ag4
aS'vrect.cpp'
p414
ag6
asS'Ampere_ac'
p415
(lp416
S'Iac'
p417
ag120
aS'ampere_ac.cpp'
p418
ag6
asS'TR_Sim'
p419
(lp420
S'.TR'
p421
aS'TR'
p422
aS'tr_sim.cpp'
p423
ag83
asS'mux8to1'
p424
(lp425
S'mux8to1'
p426
ag10
aS'mux8to1.cpp'
p427
ag12
asS'hicumL2V2p31n'
p428
(lp429
S'hicumL2V2p31n'
p430
ag125
aS'hicumL2V2p31n.cpp'
p431
ag127
asS'RFedd2P'
p432
(lp433
S'RFEDD2P'
p434
aS'RF'
p435
aS'rfedd2p.cpp'
p436
ag57
asS'Volt_noise'
p437
(lp438
S'Vnoise'
p439
ag4
aS'volt_noise.cpp'
p440
ag6
asS'Subcircuit'
p441
(lp442
S'Sub'
p443
aS'SUB'
p444
aS'subcircuit.cpp'
p445
aS'FILE'
p446
asS'dff_SR'
p447
(lp448
S'dff_SR'
p449
ag10
aS'dff_SR.cpp'
p450
ag12
asS'JFET'
p451
(lp452
S'JFET'
p453
ag125
aS'jfet.cpp'
p454
ag22
asS'jkff_SR'
p455
(lp456
S'jkff_SR'
p457
ag10
aS'jkff_SR.cpp'
p458
ag12
asS'hicumL0V1p3'
p459
(lp460
S'hicumL0V1p3'
p461
ag125
aS'hicumL0V1p3.cpp'
p462
ag127
asS'Param_Sweep'
p463
(lp464
S'.SW'
p465
aS'SW'
p466
aS'param_sweep.cpp'
p467
ag83
asS'PM_Modulator'
p468
(lp469
S'PM_Mod'
p470
ag4
aS'pm_modulator.cpp'
p471
ag6
asS'phototransistor'
p472
(lp473
S'phototransistor'
p474
aS'PT'
p475
aS'phototransistor.cpp'
p476
ag127
asS'AM_Modulator'
p477
(lp478
S'AM_Mod'
p479
ag4
aS'am_modulator.cpp'
p480
ag6
asS'MSvia'
p481
(lp482
S'MVIA'
p483
aS'MS'
p484
aS'msvia.cpp'
p485
ag36
asS'vProbe'
p486
(lp487
S'VProbe'
p488
aS'Pr'
p489
aS'vprobe.cpp'
p490
ag63
asS'Attenuator'
p491
(lp492
S'Attenuator'
p493
ag71
aS'attenuator.cpp'
p494
ag57
asS'BondWire'
p495
(lp496
S'BOND'
p497
aS'Line'
p498
aS'bondwire.cpp'
p499
ag36
asS'Source_ac'
p500
(lp501
S'Pac'
p502
ag400
aS'source_ac.cpp'
p503
ag6
asS'MScross'
p504
(lp505
S'MCROSS'
p506
aS'MS'
p507
aS'mscross.cpp'
p508
ag36
asS'logic_0'
p509
(lp510
S'logic_0'
p511
ag105
aS'logic_0.cpp'
p512
ag12
asS'logic_1'
p513
(lp514
S'logic_1'
p515
ag105
aS'logic_1.cpp'
p516
ag12
asS'BJT'
p517
(lp518
S'_BJT'
p519
ag125
aS'bjt.cpp'
p520
ag22
asS'bsim3v34pMOS'
p521
(lp522
S'bsim3v34pMOS'
p523
aS'BSIM3_'
p524
aS'bsim3v34pMOS.cpp'
p525
ag127
asS'MStee'
p526
(lp527
S'MTEE'
p528
aS'MS'
p529
aS'mstee.cpp'
p530
ag36
asS'bsim3v34nMOS'
p531
(lp532
S'bsim3v34nMOS'
p533
aS'BSIM3_'
p534
aS'bsim3v34nMOS.cpp'
p535
ag127
asS'pad4bit'
p536
(lp537
S'pad4bit'
p538
ag10
aS'pad4bit.cpp'
p539
ag12
asS'Ground'
p540
(lp541
S'GND'
p542
aS''
p543
aS'ground.cpp'
p544
ag57
asS'Digi_Sim'
p545
(lp546
S'.Digi'
p547
aS'Digi'
p548
aS'digi_sim.cpp'
p549
ag83
asS'ha1b'
p550
(lp551
S'ha1b'
p552
ag10
aS'ha1b.cpp'
p553
ag12
asS'MSline'
p554
(lp555
S'MLIN'
p556
aS'MS'
p557
aS'msline.cpp'
p558
ag36
asS'gatedDlatch'
p559
(lp560
S'gatedDlatch'
p561
ag10
aS'gatedDlatch.cpp'
p562
ag12
asS'RS_FlipFlop'
p563
(lp564
S'RSFF'
p565
ag10
aS'rs_flipflop.cpp'
p566
ag12
asS'hicumL0V1p2'
p567
(lp568
S'hicumL0V1p2'
p569
ag125
aS'hicumL0V1p2.cpp'
p570
ag127
asS'CPWopen'
p571
(lp572
S'COPEN'
p573
aS'CL'
p574
aS'cpwopen.cpp'
p575
ag36
asS'AC_Sim'
p576
(lp577
S'.AC'
p578
aS'AC'
p579
aS'ac_sim.cpp'
p580
ag83
asS'photodiode'
p581
(lp582
S'photodiode'
p583
aS'PD'
p584
aS'photodiode.cpp'
p585
ag127
asS'HBT_X'
p586
(lp587
S'HBT_X'
p588
ag125
aS'HBT_X.cpp'
p589
ag127
asS'SpiceFile'
p590
(lp591
S'SPICE'
p592
ag71
aS'spicefile.cpp'
p593
ag446
asS'MScorner'
p594
(lp595
S'MCORN'
p596
aS'MS'
p597
aS'mscorner.cpp'
p598
ag36
asS'Capacitor'
p599
(lp600
g317
ag317
aS'capacitor.cpp'
p601
ag57
asS'Noise_iv'
p602
(lp603
S'IVnoise'
p604
aS'SRC'
p605
aS'noise_iv.cpp'
p606
ag6
asS'comp_2bit'
p607
(lp608
S'comp_2bit'
p609
ag10
aS'comp_2bit.cpp'
p610
ag12
asS'CCCS'
p611
(lp612
S'CCCS'
p613
aS'SRC'
p614
aS'cccs.cpp'
p615
ag6
asS'RLCG'
p616
(lp617
S'RLCG'
p618
aS'Line'
p619
aS'rlcg.cpp'
p620
ag36
asS'hicumL0V1p2g'
p621
(lp622
S'hicumL0V1p2g'
p623
ag125
aS'hicumL0V1p2g.cpp'
p624
ag127
asS'Volt_ac'
p625
(lp626
S'Vac'
p627
ag4
aS'volt_ac.cpp'
p628
ag6
asS'MOSFET'
p629
(lp630
S'_MOSFET'
p631
ag125
aS'mosfet.cpp'
p632
ag22
asS'D_FlipFlop'
p633
(lp634
S'DFF'
p635
ag10
aS'd_flipflop.cpp'
p636
ag12
asS'Logical_Buf'
p637
(lp638
S'Buf'
p639
ag10
aS'logical_buf.cpp'
p640
ag12
asS'EqnDefined'
p641
(lp642
S'EDD'
p643
ag20
aS'eqndefined.cpp'
p644
ag22
asS'vExp'
p645
(lp646
S'Vexp'
p647
ag4
aS'vexp.cpp'
p648
ag6
asS'DC_Sim'
p649
(lp650
S'.DC'
p651
aS'DC'
p652
aS'dc_sim.cpp'
p653
ag83
asS'MSstep'
p654
(lp655
S'MSTEP'
p656
aS'MS'
p657
aS'msstep.cpp'
p658
ag36
asS'Triac'
p659
(lp660
S'Triac'
p661
ag20
aS'triac.cpp'
p662
ag22
asS'RectLine'
p663
(lp664
S'RECTLINE'
p665
aS'Line'
p666
aS'rectline.cpp'
p667
ag36
asS'nigbt'
p668
(lp669
S'nigbt'
p670
ag125
aS'nigbt.cpp'
p671
ag127
asS'log_amp'
p672
(lp673
S'log_amp'
p674
aS'LA'
p675
aS'log_amp.cpp'
p676
ag127
asS'Noise_ii'
p677
(lp678
S'IInoise'
p679
aS'SRC'
p680
aS'noise_ii.cpp'
p681
ag6
asS'Amplifier'
p682
(lp683
S'Amp'
p684
ag71
aS'amplifier.cpp'
p685
ag57
asS'Switch'
p686
(lp687
S'Switch'
p688
ag105
aS'switch.cpp'
p689
ag57
asS'TLine'
p690
(lp691
S'TLIN'
p692
aS'Line'
p693
aS'tline.cpp'
p694
ag36
asS'MSopen'
p695
(lp696
S'MOPEN'
p697
aS'MS'
p698
aS'msopen.cpp'
p699
ag36
asS'BiasT'
p700
(lp701
S'BiasT'
p702
ag71
aS'biast.cpp'
p703
ag57
asS'mux4to1'
p704
(lp705
S'mux4to1'
p706
ag10
aS'mux4to1.cpp'
p707
ag12
asS'SParamFile'
p708
(lp709
S'SPfile'
p710
ag71
aS'sparamfile.cpp'
p711
ag446
asS'Thyristor'
p712
(lp713
S'SCR'
p714
ag20
aS'thyristor.cpp'
p715
ag22
as.